; Function Attrs: nounwind uwtable
define noalias nonnull ptr @l_Array_forIn_x27Unsafe_loop___at___private_Lean_Elab_Tactic_Match_0__Lean_Elab_Tactic_mkAuxiliaryMatchTerm___spec__1___lambda__1(ptr noundef %0, ptr noundef %1, ptr noundef %2, ptr noundef %3, ptr readnone captures(none) %4, ptr readnone captures(none) %5, ptr noundef %6) local_unnamed_addr #0 {
  %8 = tail call ptr @lean_array_push(ptr noundef %1, ptr noundef %0) #5
  tail call void @lean_inc_heartbeat() #5
  %9 = tail call noalias ptr @mi_malloc_small(i64 noundef 24) #5
  %10 = icmp eq ptr %9, null
  br i1 %10, label %11, label %lean_alloc_ctor.exit

11:                                               ; preds = %7
  tail call void @lean_internal_panic_out_of_memory() #6
  unreachable

lean_alloc_ctor.exit:                             ; preds = %7
  %12 = getelementptr inbounds nuw i8, ptr %9, i64 4
  store i32 1, ptr %9, align 4, !tbaa !4
  store i32 131096, ptr %12, align 4
  %13 = getelementptr inbounds nuw i8, ptr %9, i64 8
  store ptr %2, ptr %13, align 8, !tbaa !9
  %14 = getelementptr inbounds nuw i8, ptr %9, i64 16
  store ptr %3, ptr %14, align 8, !tbaa !9
  tail call void @lean_inc_heartbeat() #5
  %15 = tail call noalias ptr @mi_malloc_small(i64 noundef 24) #5
  %16 = icmp eq ptr %15, null
  br i1 %16, label %17, label %lean_alloc_ctor.exit17

17:                                               ; preds = %lean_alloc_ctor.exit
  tail call void @lean_internal_panic_out_of_memory() #6
  unreachable

lean_alloc_ctor.exit17:                           ; preds = %lean_alloc_ctor.exit
  %18 = getelementptr inbounds nuw i8, ptr %15, i64 4
  store i32 1, ptr %15, align 4, !tbaa !4
  store i32 131096, ptr %18, align 4
  %19 = getelementptr inbounds nuw i8, ptr %15, i64 8
  store ptr %8, ptr %19, align 8, !tbaa !9
  %20 = getelementptr inbounds nuw i8, ptr %15, i64 16
  store ptr %9, ptr %20, align 8, !tbaa !9
  tail call void @lean_inc_heartbeat() #5
  %21 = tail call noalias ptr @mi_malloc_small(i64 noundef 16) #5
  %22 = icmp eq ptr %21, null
  br i1 %22, label %23, label %lean_alloc_ctor.exit18

23:                                               ; preds = %lean_alloc_ctor.exit17
  tail call void @lean_internal_panic_out_of_memory() #6
  unreachable

lean_alloc_ctor.exit18:                           ; preds = %lean_alloc_ctor.exit17
  %24 = getelementptr inbounds nuw i8, ptr %21, i64 4
  store i32 1, ptr %21, align 4, !tbaa !4
  store i32 16842768, ptr %24, align 4
  %25 = getelementptr inbounds nuw i8, ptr %21, i64 8
  store ptr %15, ptr %25, align 8, !tbaa !9
  tail call void @lean_inc_heartbeat() #5
  %26 = tail call noalias ptr @mi_malloc_small(i64 noundef 24) #5
  %27 = icmp eq ptr %26, null
  br i1 %27, label %28, label %lean_alloc_ctor.exit19

28:                                               ; preds = %lean_alloc_ctor.exit18
  tail call void @lean_internal_panic_out_of_memory() #6
  unreachable

lean_alloc_ctor.exit19:                           ; preds = %lean_alloc_ctor.exit18
  %29 = getelementptr inbounds nuw i8, ptr %26, i64 4
  store i32 1, ptr %26, align 4, !tbaa !4
  store i32 131096, ptr %29, align 4
  %30 = getelementptr inbounds nuw i8, ptr %26, i64 8
  store ptr %21, ptr %30, align 8, !tbaa !9
  %31 = getelementptr inbounds nuw i8, ptr %26, i64 16
  store ptr %6, ptr %31, align 8, !tbaa !9
  ret ptr %26
}